; Function Attrs: mustprogress uwtable
define hidden void @_ZN19OpenColorIO_v2_5dev33Add_Tonescale_Compress_Inv_ShaderERSt10shared_ptrINS_16GpuShaderCreatorEERNS_13GpuShaderTextERKSt6vectorIdSaIdEE(ptr noundef nonnull readonly align 8 captures(none) dereferenceable(16) %0, ptr noundef nonnull align 8 dereferenceable(764) %1, ptr noundef nonnull readonly align 8 captures(none) dereferenceable(24) %2) local_unnamed_addr #4 personality ptr @__gxx_personality_v0 {
  %4 = alloca %"struct.OpenColorIO_v2_5dev::ACES2::JMhParams", align 4
  %5 = alloca %"struct.OpenColorIO_v2_5dev::ACES2::ToneScaleParams", align 4
  %6 = alloca %"struct.OpenColorIO_v2_5dev::ACES2::ChromaCompressParams", align 4
  %7 = alloca %"class.std::__cxx11::basic_string", align 8
  %8 = load ptr, ptr %2, align 8, !tbaa !216
  %9 = load double, ptr %8, align 8, !tbaa !219
  %10 = fptrunc double %9 to float
  call void @llvm.lifetime.start.p0(i64 112, ptr nonnull %4) #23
  call void @_ZN19OpenColorIO_v2_5dev5ACES214init_JMhParamsERKNS_9PrimariesE(ptr dead_on_unwind nonnull writable sret(%"struct.OpenColorIO_v2_5dev::ACES2::JMhParams") align 4 %4, ptr noundef nonnull align 8 dereferenceable(64) @_ZN19OpenColorIO_v2_5dev8ACES_AP09primariesE)
  call void @llvm.lifetime.start.p0(i64 32, ptr nonnull %5) #23
  call void @_ZN19OpenColorIO_v2_5dev5ACES220init_ToneScaleParamsEf(ptr dead_on_unwind nonnull writable sret(%"struct.OpenColorIO_v2_5dev::ACES2::ToneScaleParams") align 4 %5, float noundef %10)
  call void @llvm.lifetime.start.p0(i64 1472, ptr nonnull %6) #23
  call void @_ZN19OpenColorIO_v2_5dev5ACES225init_ChromaCompressParamsEf(ptr dead_on_unwind nonnull writable sret(%"struct.OpenColorIO_v2_5dev::ACES2::ChromaCompressParams") align 4 %6, float noundef %10)
  %11 = load ptr, ptr %0, align 8, !tbaa !3
  %12 = call noundef i32 @_ZN19OpenColorIO_v2_5dev16GpuShaderCreator20getNextResourceIndexEv(ptr noundef nonnull align 8 dereferenceable(16) %11) #23
  call void @llvm.lifetime.start.p0(i64 32, ptr nonnull %7) #23
  %13 = getelementptr inbounds nuw i8, ptr %6, i64 20
  call void @_ZN19OpenColorIO_v2_5dev16_Add_Reach_tableB5cxx11ERSt10shared_ptrINS_16GpuShaderCreatorEEjRKNS_5ACES27Table1DE(ptr dead_on_unwind nonnull writable sret(%"class.std::__cxx11::basic_string") align 8 %7, ptr noundef nonnull align 8 dereferenceable(16) %0, i32 noundef %12, ptr noundef nonnull align 4 dereferenceable(1448) %13)
  invoke void @_ZN19OpenColorIO_v2_5dev34_Add_Tonescale_Compress_Inv_ShaderERSt10shared_ptrINS_16GpuShaderCreatorEERNS_13GpuShaderTextEjRKNS_5ACES29JMhParamsERKNS6_15ToneScaleParamsERKNS6_20ChromaCompressParamsERKNSt7__cxx1112basic_stringIcSt11char_traitsIcESaIcEEE(ptr noundef nonnull align 8 dereferenceable(16) %0, ptr noundef nonnull align 8 dereferenceable(764) %1, i32 noundef %12, ptr noundef nonnull align 4 dereferenceable(112) %4, ptr noundef nonnull align 4 dereferenceable(32) %5, ptr noundef nonnull align 4 dereferenceable(1472) %6, ptr noundef nonnull align 8 dereferenceable(32) %7)
          to label %14 unwind label %23

14:                                               ; preds = %3
  %15 = load ptr, ptr %7, align 8, !tbaa !16
  %16 = getelementptr inbounds nuw i8, ptr %7, i64 16
  %17 = icmp eq ptr %15, %16
  br i1 %17, label %_ZNKSt7__cxx1112basic_stringIcSt11char_traitsIcESaIcEE11_M_is_localEv.exit.thread.i.i, label %_ZNKSt7__cxx1112basic_stringIcSt11char_traitsIcESaIcEE11_M_is_localEv.exit.i.i

_ZNKSt7__cxx1112basic_stringIcSt11char_traitsIcESaIcEE11_M_is_localEv.exit.thread.i.i: ; preds = %14
  %18 = getelementptr inbounds nuw i8, ptr %7, i64 8
  %19 = load i64, ptr %18, align 8, !tbaa !19
  %20 = icmp ult i64 %19, 16
  call void @llvm.assume(i1 %20)
  br label %_ZNSt7__cxx1112basic_stringIcSt11char_traitsIcESaIcEED2Ev.exit

_ZNKSt7__cxx1112basic_stringIcSt11char_traitsIcESaIcEE11_M_is_localEv.exit.i.i: ; preds = %14
  %21 = load i64, ptr %16, align 8, !tbaa !18
  %22 = add i64 %21, 1
  call void @_ZdlPvm(ptr noundef %15, i64 noundef %22) #25
  br label %_ZNSt7__cxx1112basic_stringIcSt11char_traitsIcESaIcEED2Ev.exit

_ZNSt7__cxx1112basic_stringIcSt11char_traitsIcESaIcEED2Ev.exit: ; preds = %_ZNKSt7__cxx1112basic_stringIcSt11char_traitsIcESaIcEE11_M_is_localEv.exit.thread.i.i, %_ZNKSt7__cxx1112basic_stringIcSt11char_traitsIcESaIcEE11_M_is_localEv.exit.i.i
  call void @llvm.lifetime.end.p0(i64 32, ptr nonnull %7) #23
  call void @llvm.lifetime.end.p0(i64 1472, ptr nonnull %6) #23
  call void @llvm.lifetime.end.p0(i64 32, ptr nonnull %5) #23
  call void @llvm.lifetime.end.p0(i64 112, ptr nonnull %4) #23
  ret void

23:                                               ; preds = %3
  %24 = landingpad { ptr, i32 }
          cleanup
  %25 = load ptr, ptr %7, align 8, !tbaa !16
  %26 = getelementptr inbounds nuw i8, ptr %7, i64 16
  %27 = icmp eq ptr %25, %26
  br i1 %27, label %_ZNKSt7__cxx1112basic_stringIcSt11char_traitsIcESaIcEE11_M_is_localEv.exit.thread.i.i11, label %_ZNKSt7__cxx1112basic_stringIcSt11char_traitsIcESaIcEE11_M_is_localEv.exit.i.i10

_ZNKSt7__cxx1112basic_stringIcSt11char_traitsIcESaIcEE11_M_is_localEv.exit.thread.i.i11: ; preds = %23
  %28 = getelementptr inbounds nuw i8, ptr %7, i64 8
  %29 = load i64, ptr %28, align 8, !tbaa !19
  %30 = icmp ult i64 %29, 16
  call void @llvm.assume(i1 %30)
  br label %_ZNSt7__cxx1112basic_stringIcSt11char_traitsIcESaIcEED2Ev.exit12

_ZNKSt7__cxx1112basic_stringIcSt11char_traitsIcESaIcEE11_M_is_localEv.exit.i.i10: ; preds = %23
  %31 = load i64, ptr %26, align 8, !tbaa !18
  %32 = add i64 %31, 1
  call void @_ZdlPvm(ptr noundef %25, i64 noundef %32) #25
  br label %_ZNSt7__cxx1112basic_stringIcSt11char_traitsIcESaIcEED2Ev.exit12

_ZNSt7__cxx1112basic_stringIcSt11char_traitsIcESaIcEED2Ev.exit12: ; preds = %_ZNKSt7__cxx1112basic_stringIcSt11char_traitsIcESaIcEE11_M_is_localEv.exit.thread.i.i11, %_ZNKSt7__cxx1112basic_stringIcSt11char_traitsIcESaIcEE11_M_is_localEv.exit.i.i10
  call void @llvm.lifetime.end.p0(i64 32, ptr nonnull %7) #23
  call void @llvm.lifetime.end.p0(i64 1472, ptr nonnull %6) #23
  call void @llvm.lifetime.end.p0(i64 32, ptr nonnull %5) #23
  call void @llvm.lifetime.end.p0(i64 112, ptr nonnull %4) #23
  resume { ptr, i32 } %24
}